target datalayout = "e-m:e-p270:32:32-p271:32:32-p272:64:64-i64:64-i128:128-f80:128-n8:16:32:64-S128"
target triple = "x86_64-pc-linux-gnu"

%struct.Nwk_Man_t_ = type { ptr, ptr, ptr, ptr, ptr, [5 x i32], i32, ptr, ptr, ptr, ptr, ptr, i32, i32, i32, i32, i32 }
%struct.Nwk_Obj_t_ = type { ptr, ptr, ptr, %union.anon, i32, i32, i32, i32, float, float, float, i32, i32, i32, ptr }
%union.anon = type { ptr }
%struct.Vec_Ptr_t_ = type { i32, i32, ptr }

; Function Attrs: nounwind uwtable
define internal i32 @Nwk_ObjIsCo(ptr noundef %0) #0 {
  %2 = alloca ptr, align 8
  store ptr %0, ptr %2, align 8
  %3 = load ptr, ptr %2, align 8
  %4 = getelementptr inbounds %struct.Nwk_Obj_t_, ptr %3, i32 0, i32 4
  %5 = load i32, ptr %4, align 8
  %6 = and i32 %5, 7
  %7 = icmp eq i32 %6, 2
  %8 = zext i1 %7 to i32
  ret i32 %8
}

; Function Attrs: nounwind uwtable
define internal i32 @Nwk_ObjLevel(ptr noundef %0) #0 {
  %2 = alloca ptr, align 8
  store ptr %0, ptr %2, align 8
  %3 = load ptr, ptr %2, align 8
  %4 = getelementptr inbounds %struct.Nwk_Obj_t_, ptr %3, i32 0, i32 7
  %5 = load i32, ptr %4, align 4
  ret i32 %5
}

; Function Attrs: nounwind uwtable
define internal i32 @Nwk_ObjIsPo(ptr noundef %0) #0 {
  %2 = alloca ptr, align 8
  store ptr %0, ptr %2, align 8
  %3 = load ptr, ptr %2, align 8
  %4 = call i32 @Nwk_ObjIsCo(ptr noundef %3)
  %5 = icmp ne i32 %4, 0
  br i1 %5, label %6, label %27

6:                                                ; preds = %1
  %7 = load ptr, ptr %2, align 8
  %8 = getelementptr inbounds %struct.Nwk_Obj_t_, ptr %7, i32 0, i32 0
  %9 = load ptr, ptr %8, align 8
  %10 = getelementptr inbounds %struct.Nwk_Man_t_, ptr %9, i32 0, i32 8
  %11 = load ptr, ptr %10, align 8
  %12 = icmp eq ptr %11, null
  br i1 %12, label %25, label %13

13:                                               ; preds = %6
  %14 = load ptr, ptr %2, align 8
  %15 = getelementptr inbounds %struct.Nwk_Obj_t_, ptr %14, i32 0, i32 0
  %16 = load ptr, ptr %15, align 8
  %17 = getelementptr inbounds %struct.Nwk_Man_t_, ptr %16, i32 0, i32 8
  %18 = load ptr, ptr %17, align 8
  %19 = load ptr, ptr %2, align 8
  %20 = getelementptr inbounds %struct.Nwk_Obj_t_, ptr %19, i32 0, i32 4
  %21 = load i32, ptr %20, align 8
  %22 = lshr i32 %21, 7
  %23 = call i32 @Tim_ManBoxForCo(ptr noundef %18, i32 noundef %22)
  %24 = icmp eq i32 %23, -1
  br label %25

25:                                               ; preds = %13, %6
  %26 = phi i1 [ true, %6 ], [ %24, %13 ]
  br label %27

27:                                               ; preds = %25, %1
  %28 = phi i1 [ false, %1 ], [ %26, %25 ]
  %29 = zext i1 %28 to i32
  ret i32 %29
}

; Function Attrs: nounwind uwtable
define internal void @Nwk_ObjSetLevel(ptr noundef %0, i32 noundef %1) #0 {
  %3 = alloca ptr, align 8
  %4 = alloca i32, align 4
  store ptr %0, ptr %3, align 8
  store i32 %1, ptr %4, align 4
  %5 = load i32, ptr %4, align 4
  %6 = load ptr, ptr %3, align 8
  %7 = getelementptr inbounds %struct.Nwk_Obj_t_, ptr %6, i32 0, i32 7
  store i32 %5, ptr %7, align 4
  ret void
}

; Function Attrs: nounwind uwtable
define internal ptr @Vec_PtrEntry(ptr noundef %0, i32 noundef %1) #0 {
  %3 = alloca ptr, align 8
  %4 = alloca i32, align 4
  store ptr %0, ptr %3, align 8
  store i32 %1, ptr %4, align 4
  %5 = load ptr, ptr %3, align 8
  %6 = getelementptr inbounds %struct.Vec_Ptr_t_, ptr %5, i32 0, i32 2
  %7 = load ptr, ptr %6, align 8
  %8 = load i32, ptr %4, align 4
  %9 = sext i32 %8 to i64
  %10 = getelementptr inbounds ptr, ptr %7, i64 %9
  %11 = load ptr, ptr %10, align 8
  ret ptr %11
}

; Function Attrs: nounwind uwtable
define internal i32 @Vec_PtrSize(ptr noundef %0) #0 {
  %2 = alloca ptr, align 8
  store ptr %0, ptr %2, align 8
  %3 = load ptr, ptr %2, align 8
  %4 = getelementptr inbounds %struct.Vec_Ptr_t_, ptr %3, i32 0, i32 1
  %5 = load i32, ptr %4, align 4
  ret i32 %5
}

; Function Attrs: nounwind uwtable
define i32 @Nwk_ManLevel(ptr noundef %0) #0 {
  %2 = alloca ptr, align 8
  %3 = alloca ptr, align 8
  %4 = alloca i32, align 4
  %5 = alloca i32, align 4
  store ptr %0, ptr %2, align 8
  store i32 0, ptr %5, align 4
  store i32 0, ptr %4, align 4
  br label %6

6:                                                ; preds = %28, %1
  %7 = load i32, ptr %4, align 4
  %8 = load ptr, ptr %2, align 8
  %9 = getelementptr inbounds %struct.Nwk_Man_t_, ptr %8, i32 0, i32 4
  %10 = load ptr, ptr %9, align 8
  %11 = call i32 @Vec_PtrSize(ptr noundef %10)
  %12 = icmp slt i32 %7, %11
  br i1 %12, label %13, label %19

13:                                               ; preds = %6
  %14 = load ptr, ptr %2, align 8
  %15 = getelementptr inbounds %struct.Nwk_Man_t_, ptr %14, i32 0, i32 4
  %16 = load ptr, ptr %15, align 8
  %17 = load i32, ptr %4, align 4
  %18 = call ptr @Vec_PtrEntry(ptr noundef %16, i32 noundef %17)
  store ptr %18, ptr %3, align 8
  br label %19

19:                                               ; preds = %13, %6
  %20 = phi i1 [ false, %6 ], [ true, %13 ]
  br i1 %20, label %21, label %31

21:                                               ; preds = %19
  %22 = load ptr, ptr %3, align 8
  %23 = icmp eq ptr %22, null
  br i1 %23, label %24, label %25

24:                                               ; preds = %21
  br label %27

25:                                               ; preds = %21
  %26 = load ptr, ptr %3, align 8
  call void @Nwk_ObjSetLevel(ptr noundef %26, i32 noundef 0)
  br label %27

27:                                               ; preds = %25, %24
  br label %28

28:                                               ; preds = %27
  %29 = load i32, ptr %4, align 4
  %30 = add nsw i32 %29, 1
  store i32 %30, ptr %4, align 4
  br label %6, !llvm.loop !13

31:                                               ; preds = %19
  %32 = load ptr, ptr %2, align 8
  call void @Nwk_ManIncrementTravId(ptr noundef %32)
  store i32 0, ptr %4, align 4
  br label %33

33:                                               ; preds = %64, %31
  %34 = load i32, ptr %4, align 4
  %35 = load ptr, ptr %2, align 8
  %36 = getelementptr inbounds %struct.Nwk_Man_t_, ptr %35, i32 0, i32 3
  %37 = load ptr, ptr %36, align 8
  %38 = call i32 @Vec_PtrSize(ptr noundef %37)
  %39 = icmp slt i32 %34, %38
  br i1 %39, label %40, label %46

40:                                               ; preds = %33
  %41 = load ptr, ptr %2, align 8
  %42 = getelementptr inbounds %struct.Nwk_Man_t_, ptr %41, i32 0, i32 3
  %43 = load ptr, ptr %42, align 8
  %44 = load i32, ptr %4, align 4
  %45 = call ptr @Vec_PtrEntry(ptr noundef %43, i32 noundef %44)
  store ptr %45, ptr %3, align 8
  br label %46

46:                                               ; preds = %40, %33
  %47 = phi i1 [ false, %33 ], [ true, %40 ]
  br i1 %47, label %48, label %67

48:                                               ; preds = %46
  %49 = load ptr, ptr %3, align 8
  %50 = call i32 @Nwk_ObjIsPo(ptr noundef %49)
  %51 = icmp ne i32 %50, 0
  br i1 %51, label %53, label %52

52:                                               ; preds = %48
  br label %63

53:                                               ; preds = %48
  %54 = load ptr, ptr %3, align 8
  call void @Nwk_ManLevel_rec(ptr noundef %54)
  %55 = load i32, ptr %5, align 4
  %56 = load ptr, ptr %3, align 8
  %57 = call i32 @Nwk_ObjLevel(ptr noundef %56)
  %58 = icmp slt i32 %55, %57
  br i1 %58, label %59, label %62

59:                                               ; preds = %53
  %60 = load ptr, ptr %3, align 8
  %61 = call i32 @Nwk_ObjLevel(ptr noundef %60)
  store i32 %61, ptr %5, align 4
  br label %62

62:                                               ; preds = %59, %53
  br label %63

63:                                               ; preds = %62, %52
  br label %64

64:                                               ; preds = %63
  %65 = load i32, ptr %4, align 4
  %66 = add nsw i32 %65, 1
  store i32 %66, ptr %4, align 4
  br label %33, !llvm.loop !14

67:                                               ; preds = %46
  store i32 0, ptr %4, align 4
  br label %68

68:                                               ; preds = %93, %67
  %69 = load i32, ptr %4, align 4
  %70 = load ptr, ptr %2, align 8
  %71 = getelementptr inbounds %struct.Nwk_Man_t_, ptr %70, i32 0, i32 2
  %72 = load ptr, ptr %71, align 8
  %73 = call i32 @Vec_PtrSize(ptr noundef %72)
  %74 = icmp slt i32 %69, %73
  br i1 %74, label %75, label %81

75:                                               ; preds = %68
  %76 = load ptr, ptr %2, align 8
  %77 = getelementptr inbounds %struct.Nwk_Man_t_, ptr %76, i32 0, i32 2
  %78 = load ptr, ptr %77, align 8
  %79 = load i32, ptr %4, align 4
  %80 = call ptr @Vec_PtrEntry(ptr noundef %78, i32 noundef %79)
  store ptr %80, ptr %3, align 8
  br label %81

81:                                               ; preds = %75, %68
  %82 = phi i1 [ false, %68 ], [ true, %75 ]
  br i1 %82, label %83, label %96

83:                                               ; preds = %81
  %84 = load ptr, ptr %3, align 8
  call void @Nwk_ManLevel_rec(ptr noundef %84)
  %85 = load i32, ptr %5, align 4
  %86 = load ptr, ptr %3, align 8
  %87 = call i32 @Nwk_ObjLevel(ptr noundef %86)
  %88 = icmp slt i32 %85, %87
  br i1 %88, label %89, label %92

89:                                               ; preds = %83
  %90 = load ptr, ptr %3, align 8
  %91 = call i32 @Nwk_ObjLevel(ptr noundef %90)
  store i32 %91, ptr %5, align 4
  br label %92

92:                                               ; preds = %89, %83
  br label %93

93:                                               ; preds = %92
  %94 = load i32, ptr %4, align 4
  %95 = add nsw i32 %94, 1
  store i32 %95, ptr %4, align 4
  br label %68, !llvm.loop !15

96:                                               ; preds = %81
  %97 = load i32, ptr %5, align 4
  ret i32 %97
}