; Function Attrs: nounwind uwtable
define range(i32 0, -2147483648) i32 @Nwk_ManLevel(ptr noundef %0) local_unnamed_addr #0 {
  %2 = getelementptr inbounds nuw i8, ptr %0, i64 32
  %3 = load ptr, ptr %2, align 8
  %4 = getelementptr i8, ptr %3, i64 4
  %.val3648 = load i32, ptr %4, align 4
  %5 = icmp sgt i32 %.val3648, 0
  br i1 %5, label %.lr.ph, label %.critedge

.lr.ph:                                           ; preds = %1, %13
  %6 = phi ptr [ %14, %13 ], [ %3, %1 ]
  %indvars.iv = phi i64 [ %indvars.iv.next, %13 ], [ 0, %1 ]
  %7 = getelementptr i8, ptr %6, i64 8
  %.val39 = load ptr, ptr %7, align 8
  %8 = getelementptr inbounds nuw ptr, ptr %.val39, i64 %indvars.iv
  %9 = load ptr, ptr %8, align 8
  %10 = icmp eq ptr %9, null
  br i1 %10, label %13, label %11

11:                                               ; preds = %.lr.ph
  %12 = getelementptr inbounds nuw i8, ptr %9, i64 44
  store i32 0, ptr %12, align 4
  %.pre = load ptr, ptr %2, align 8
  br label %13

13:                                               ; preds = %11, %.lr.ph
  %14 = phi ptr [ %.pre, %11 ], [ %6, %.lr.ph ]
  %indvars.iv.next = add nuw nsw i64 %indvars.iv, 1
  %15 = getelementptr i8, ptr %14, i64 4
  %.val36 = load i32, ptr %15, align 4
  %16 = sext i32 %.val36 to i64
  %17 = icmp slt i64 %indvars.iv.next, %16
  br i1 %17, label %.lr.ph, label %.critedge, !llvm.loop !13

.critedge:                                        ; preds = %13, %1
  tail call void @Nwk_ManIncrementTravId(ptr noundef nonnull %0) #9
  %18 = getelementptr inbounds nuw i8, ptr %0, i64 24
  %19 = load ptr, ptr %18, align 8
  %20 = getelementptr i8, ptr %19, i64 4
  %.val3550 = load i32, ptr %20, align 4
  %21 = icmp sgt i32 %.val3550, 0
  br i1 %21, label %.lr.ph53, label %.critedge2.preheader

.critedge2.preheader:                             ; preds = %Nwk_ObjIsPo.exit.thread, %.critedge
  %.0.lcssa = phi i32 [ 0, %.critedge ], [ %.1, %Nwk_ObjIsPo.exit.thread ]
  %22 = getelementptr inbounds nuw i8, ptr %0, i64 16
  %23 = load ptr, ptr %22, align 8
  %24 = getelementptr i8, ptr %23, i64 4
  %.val54 = load i32, ptr %24, align 4
  %25 = icmp sgt i32 %.val54, 0
  br i1 %25, label %.critedge2, label %.critedge4

.lr.ph53:                                         ; preds = %.critedge, %Nwk_ObjIsPo.exit.thread
  %indvars.iv61 = phi i64 [ %indvars.iv.next62, %Nwk_ObjIsPo.exit.thread ], [ 0, %.critedge ]
  %26 = phi ptr [ %40, %Nwk_ObjIsPo.exit.thread ], [ %19, %.critedge ]
  %.052 = phi i32 [ %.1, %Nwk_ObjIsPo.exit.thread ], [ 0, %.critedge ]
  %27 = getelementptr i8, ptr %26, i64 8
  %.val38 = load ptr, ptr %27, align 8
  %28 = getelementptr inbounds nuw ptr, ptr %.val38, i64 %indvars.iv61
  %29 = load ptr, ptr %28, align 8
  %30 = getelementptr i8, ptr %29, i64 32
  %.val.i = load i32, ptr %30, align 8
  %31 = and i32 %.val.i, 7
  %.not.i = icmp eq i32 %31, 2
  br i1 %.not.i, label %32, label %Nwk_ObjIsPo.exit.thread

32:                                               ; preds = %.lr.ph53
  %33 = load ptr, ptr %29, align 8
  %34 = getelementptr inbounds nuw i8, ptr %33, i64 72
  %35 = load ptr, ptr %34, align 8
  %36 = icmp eq ptr %35, null
  br i1 %36, label %Nwk_ObjIsPo.exit.thread45, label %Nwk_ObjIsPo.exit

Nwk_ObjIsPo.exit:                                 ; preds = %32
  %37 = lshr i32 %.val.i, 7
  %38 = tail call i32 @Tim_ManBoxForCo(ptr noundef nonnull %35, i32 noundef %37) #9
  %.not = icmp eq i32 %38, -1
  br i1 %.not, label %Nwk_ObjIsPo.exit.thread45, label %Nwk_ObjIsPo.exit.thread

Nwk_ObjIsPo.exit.thread45:                        ; preds = %32, %Nwk_ObjIsPo.exit
  tail call void @Nwk_ManLevel_rec(ptr noundef nonnull %29)
  %39 = getelementptr i8, ptr %29, i64 44
  %.val43 = load i32, ptr %39, align 4
  %spec.select = tail call i32 @llvm.smax.i32(i32 %.052, i32 %.val43)
  br label %Nwk_ObjIsPo.exit.thread

Nwk_ObjIsPo.exit.thread:                          ; preds = %Nwk_ObjIsPo.exit.thread45, %.lr.ph53, %Nwk_ObjIsPo.exit
  %.1 = phi i32 [ %.052, %Nwk_ObjIsPo.exit ], [ %.052, %.lr.ph53 ], [ %spec.select, %Nwk_ObjIsPo.exit.thread45 ]
  %indvars.iv.next62 = add nuw nsw i64 %indvars.iv61, 1
  %40 = load ptr, ptr %18, align 8
  %41 = getelementptr i8, ptr %40, i64 4
  %.val35 = load i32, ptr %41, align 4
  %42 = sext i32 %.val35 to i64
  %43 = icmp slt i64 %indvars.iv.next62, %42
  br i1 %43, label %.lr.ph53, label %.critedge2.preheader, !llvm.loop !14

.critedge2:                                       ; preds = %.critedge2.preheader, %.critedge2
  %indvars.iv64 = phi i64 [ %indvars.iv.next65, %.critedge2 ], [ 0, %.critedge2.preheader ]
  %44 = phi ptr [ %49, %.critedge2 ], [ %23, %.critedge2.preheader ]
  %.256 = phi i32 [ %spec.select47, %.critedge2 ], [ %.0.lcssa, %.critedge2.preheader ]
  %45 = getelementptr i8, ptr %44, i64 8
  %.val37 = load ptr, ptr %45, align 8
  %46 = getelementptr inbounds nuw ptr, ptr %.val37, i64 %indvars.iv64
  %47 = load ptr, ptr %46, align 8
  tail call void @Nwk_ManLevel_rec(ptr noundef %47)
  %48 = getelementptr i8, ptr %47, i64 44
  %.val41 = load i32, ptr %48, align 4
  %spec.select47 = tail call i32 @llvm.smax.i32(i32 %.256, i32 %.val41)
  %indvars.iv.next65 = add nuw nsw i64 %indvars.iv64, 1
  %49 = load ptr, ptr %22, align 8
  %50 = getelementptr i8, ptr %49, i64 4
  %.val = load i32, ptr %50, align 4
  %51 = sext i32 %.val to i64
  %52 = icmp slt i64 %indvars.iv.next65, %51
  br i1 %52, label %.critedge2, label %.critedge4, !llvm.loop !15

.critedge4:                                       ; preds = %.critedge2, %.critedge2.preheader
  %.2.lcssa = phi i32 [ %.0.lcssa, %.critedge2.preheader ], [ %spec.select47, %.critedge2 ]
  ret i32 %.2.lcssa
}